; Function Attrs: nofree norecurse nosync nounwind memory(argmem: readwrite) uwtable
define hidden void @aom_highbd_smooth_predictor_4x8_c(ptr nocapture noundef writeonly %0, i64 noundef %1, ptr nocapture noundef readonly %2, ptr nocapture noundef readonly %3, i32 noundef %4) local_unnamed_addr #0 {
  %6 = alloca [4 x i16], align 2
  %7 = alloca [4 x i8], align 1
  call void @llvm.lifetime.start.p0(i64 8, ptr nonnull %6)
  call void @llvm.lifetime.start.p0(i64 4, ptr nonnull %7)
  %8 = getelementptr i8, ptr %3, i64 14
  %9 = load i16, ptr %8, align 2
  %10 = getelementptr i8, ptr %2, i64 6
  %11 = load i16, ptr %10, align 2
  %12 = getelementptr inbounds i8, ptr %6, i64 2
  %13 = getelementptr inbounds i8, ptr %6, i64 4
  %14 = getelementptr inbounds i8, ptr %6, i64 6
  %15 = getelementptr inbounds i8, ptr %7, i64 1
  %16 = getelementptr inbounds i8, ptr %7, i64 2
  %17 = getelementptr inbounds i8, ptr %7, i64 3
  br label %.preheader.us.i

.preheader.us.i:                                  ; preds = %._crit_edge.us.i, %5
  %indvars.iv51.i = phi i64 [ %indvars.iv.next52.i, %._crit_edge.us.i ], [ 0, %5 ]
  %.03842.us.i = phi ptr [ %43, %._crit_edge.us.i ], [ %0, %5 ]
  %18 = getelementptr inbounds i16, ptr %3, i64 %indvars.iv51.i
  %19 = getelementptr inbounds i8, ptr getelementptr inbounds (i8, ptr @sm_weight_arrays, i64 8), i64 %indvars.iv51.i
  %20 = load i8, ptr %19, align 1
  %21 = sub i8 0, %20
  br label %22

22:                                               ; preds = %29, %.preheader.us.i
  %indvars.iv47.i = phi i64 [ 0, %.preheader.us.i ], [ %indvars.iv.next48.i, %29 ]
  %23 = getelementptr inbounds i16, ptr %2, i64 %indvars.iv47.i
  %24 = load i16, ptr %23, align 2
  store i16 %24, ptr %6, align 2
  store i16 %9, ptr %12, align 2
  %25 = load i16, ptr %18, align 2
  store i16 %25, ptr %13, align 2
  store i16 %11, ptr %14, align 2
  store i8 %20, ptr %7, align 1
  store i8 %21, ptr %15, align 1
  %26 = getelementptr inbounds i8, ptr getelementptr inbounds (i8, ptr @sm_weight_arrays, i64 4), i64 %indvars.iv47.i
  %27 = load i8, ptr %26, align 1
  store i8 %27, ptr %16, align 1
  %28 = sub i8 0, %27
  store i8 %28, ptr %17, align 1
  br label %34

29:                                               ; preds = %34
  %30 = add i32 %42, 256
  %31 = lshr i32 %30, 9
  %32 = trunc i32 %31 to i16
  %33 = getelementptr inbounds i16, ptr %.03842.us.i, i64 %indvars.iv47.i
  store i16 %32, ptr %33, align 2
  %indvars.iv.next48.i = add nuw nsw i64 %indvars.iv47.i, 1
  %exitcond50.not.i = icmp eq i64 %indvars.iv.next48.i, 4
  br i1 %exitcond50.not.i, label %._crit_edge.us.i, label %22, !llvm.loop !18

34:                                               ; preds = %34, %22
  %indvars.iv.i = phi i64 [ %indvars.iv.next.i, %34 ], [ 0, %22 ]
  %.03539.us.i = phi i32 [ %42, %34 ], [ 0, %22 ]
  %35 = getelementptr inbounds [4 x i8], ptr %7, i64 0, i64 %indvars.iv.i
  %36 = load i8, ptr %35, align 1
  %37 = zext i8 %36 to i32
  %38 = getelementptr inbounds [4 x i16], ptr %6, i64 0, i64 %indvars.iv.i
  %39 = load i16, ptr %38, align 2
  %40 = zext i16 %39 to i32
  %41 = mul nuw nsw i32 %40, %37
  %42 = add i32 %41, %.03539.us.i
  %indvars.iv.next.i = add nuw nsw i64 %indvars.iv.i, 1
  %exitcond.not.i = icmp eq i64 %indvars.iv.next.i, 4
  br i1 %exitcond.not.i, label %29, label %34, !llvm.loop !19

._crit_edge.us.i:                                 ; preds = %29
  %43 = getelementptr inbounds i16, ptr %.03842.us.i, i64 %1
  %indvars.iv.next52.i = add nuw nsw i64 %indvars.iv51.i, 1
  %exitcond55.not.i = icmp eq i64 %indvars.iv.next52.i, 8
  br i1 %exitcond55.not.i, label %highbd_smooth_predictor.exit, label %.preheader.us.i, !llvm.loop !20

highbd_smooth_predictor.exit:                     ; preds = %._crit_edge.us.i
  call void @llvm.lifetime.end.p0(i64 8, ptr nonnull %6)
  call void @llvm.lifetime.end.p0(i64 4, ptr nonnull %7)
  ret void
}